; Function Attrs: mustprogress uwtable
define internal void @_ZN12_GLOBAL__N_14Impl4stopEv(ptr noundef nonnull align 8 dereferenceable(104) %0) unnamed_addr #0 align 2 personality ptr @__gxx_personality_v0 {
  %2 = getelementptr inbounds i8, ptr %0, i64 8
  %3 = tail call noundef i32 @pthread_mutex_lock(ptr noundef nonnull %2) #12
  %.not.i.i.i = icmp eq i32 %3, 0
  br i1 %.not.i.i.i, label %_ZNSt11unique_lockISt5mutexEC2ERS0_.exit, label %4

4:                                                ; preds = %1
  tail call void @_ZSt20__throw_system_errori(i32 noundef %3) #14
  unreachable

_ZNSt11unique_lockISt5mutexEC2ERS0_.exit:         ; preds = %1
  %5 = getelementptr inbounds i8, ptr %0, i64 64
  %6 = atomicrmw xchg ptr %5, i8 1 seq_cst, align 1
  %7 = and i8 %6, 1
  %.not.i = icmp eq i8 %7, 0
  br i1 %.not.i, label %8, label %_ZNSt11unique_lockISt5mutexED2Ev.exit

8:                                                ; preds = %_ZNSt11unique_lockISt5mutexEC2ERS0_.exit
  %9 = getelementptr inbounds i8, ptr %0, i64 56
  %10 = load ptr, ptr %9, align 8
  invoke void @_ZNK3dap6Socket5closeEv(ptr noundef nonnull align 8 dereferenceable(16) %10)
          to label %.noexc unwind label %_ZNSt11unique_lockISt5mutexED2Ev.exit6

.noexc:                                           ; preds = %8
  %11 = getelementptr inbounds i8, ptr %0, i64 48
  invoke void @_ZNSt6thread4joinEv(ptr noundef nonnull align 8 dereferenceable(8) %11)
          to label %_ZNSt11unique_lockISt5mutexED2Ev.exit unwind label %_ZNSt11unique_lockISt5mutexED2Ev.exit6

_ZNSt11unique_lockISt5mutexED2Ev.exit:            ; preds = %.noexc, %_ZNSt11unique_lockISt5mutexEC2ERS0_.exit
  %12 = tail call noundef i32 @pthread_mutex_unlock(ptr noundef nonnull %2) #12
  ret void

_ZNSt11unique_lockISt5mutexED2Ev.exit6:           ; preds = %8, %.noexc
  %13 = landingpad { ptr, i32 }
          cleanup
  %14 = tail call noundef i32 @pthread_mutex_unlock(ptr noundef nonnull %2) #12
  resume { ptr, i32 } %13
}